target datalayout = "e-m:e-p270:32:32-p271:32:32-p272:64:64-i64:64-i128:128-f80:128-n8:16:32:64-S128"
target triple = "x86_64-pc-linux-gnu"

%struct.GDBUserState = type { i32, ptr, i32, i8, [16 x i64], i8, i32, [2 x i32], i32, i32, [128 x i8], i64 }
%struct.GDBState = type { i8, ptr, ptr, ptr, i32, [4096 x i8], i32, i32, i32, ptr, i32, i8, ptr, i32, ptr, ptr, i32, i32, i8 }
%struct.timeval = type { i64, i64 }

@gdbserver_user_state = internal global %struct.GDBUserState zeroinitializer, align 8
@gdbserver_state = external global %struct.GDBState, align 8
@.str = private unnamed_addr constant [6 x i8] c"W%02x\00", align 1
@trace_events_enabled_count = external global i32, align 4
@_TRACE_GDBSTUB_OP_EXITING_DSTATE = external global i16, align 2
@message_with_timestamp = external global i8, align 1
@.str.27 = private unnamed_addr constant [65 x i8] c"%d@%zu.%06zu:gdbstub_op_exiting notifying exit with code=0x%02x\0A\00", align 1
@.str.28 = private unnamed_addr constant [52 x i8] c"gdbstub_op_exiting notifying exit with code=0x%02x\0A\00", align 1
@qemu_loglevel = external global i32, align 4

; Function Attrs: inlinehint nounwind sspstrong uwtable
define internal zeroext i1 @qemu_loglevel_mask(i32 noundef %0) #6 {
  %2 = alloca i32, align 4
  store i32 %0, ptr %2, align 4
  %3 = load i32, ptr @qemu_loglevel, align 4
  %4 = load i32, ptr %2, align 4
  %5 = and i32 %3, %4
  %6 = icmp ne i32 %5, 0
  ret i1 %6
}

; Function Attrs: inlinehint nounwind sspstrong uwtable
define internal void @_nocheck__trace_gdbstub_op_exiting(i8 noundef zeroext %0) #6 {
  %2 = alloca i8, align 1
  %3 = alloca %struct.timeval, align 8
  store i8 %0, ptr %2, align 1
  %4 = load i32, ptr @trace_events_enabled_count, align 4
  %5 = icmp ne i32 %4, 0
  %6 = xor i1 %5, true
  %7 = xor i1 %6, true
  %8 = zext i1 %7 to i32
  %9 = sext i32 %8 to i64
  %10 = call i64 @llvm.expect.i64(i64 %9, i64 0)
  %11 = icmp ne i64 %10, 0
  br i1 %11, label %12, label %34

12:                                               ; preds = %1
  %13 = load i16, ptr @_TRACE_GDBSTUB_OP_EXITING_DSTATE, align 2
  %14 = zext i16 %13 to i32
  %15 = icmp ne i32 %14, 0
  br i1 %15, label %16, label %34

16:                                               ; preds = %12
  %17 = call zeroext i1 @qemu_loglevel_mask(i32 noundef 32768)
  br i1 %17, label %18, label %34

18:                                               ; preds = %16
  %19 = load i8, ptr @message_with_timestamp, align 1, !range !7, !noundef !8
  %20 = trunc i8 %19 to i1
  br i1 %20, label %21, label %30

21:                                               ; preds = %18
  call void @llvm.lifetime.start.p0(i64 16, ptr %3) #14
  call void @llvm.memset.p0.i64(ptr align 8 %3, i8 0, i64 16, i1 false), !annotation !4
  %22 = call i32 @gettimeofday(ptr noundef %3, ptr noundef null) #14
  %23 = call i32 @qemu_get_thread_id()
  %24 = getelementptr inbounds nuw %struct.timeval, ptr %3, i32 0, i32 0
  %25 = load i64, ptr %24, align 8
  %26 = getelementptr inbounds nuw %struct.timeval, ptr %3, i32 0, i32 1
  %27 = load i64, ptr %26, align 8
  %28 = load i8, ptr %2, align 1
  %29 = zext i8 %28 to i32
  call void (ptr, ...) @qemu_log(ptr noundef @.str.27, i32 noundef %23, i64 noundef %25, i64 noundef %27, i32 noundef %29)
  call void @llvm.lifetime.end.p0(i64 16, ptr %3) #14
  br label %33

30:                                               ; preds = %18
  %31 = load i8, ptr %2, align 1
  %32 = zext i8 %31 to i32
  call void (ptr, ...) @qemu_log(ptr noundef @.str.28, i32 noundef %32)
  br label %33

33:                                               ; preds = %30, %21
  br label %34

34:                                               ; preds = %33, %16, %12, %1
  ret void
}

; Function Attrs: inlinehint nounwind sspstrong uwtable
define internal void @trace_gdbstub_op_exiting(i8 noundef zeroext %0) #6 {
  %2 = alloca i8, align 1
  store i8 %0, ptr %2, align 1
  %3 = load i8, ptr %2, align 1
  call void @_nocheck__trace_gdbstub_op_exiting(i8 noundef zeroext %3)
  ret void
}

; Function Attrs: nounwind sspstrong uwtable
define dso_local void @gdb_exit(i32 noundef %0) #0 {
  %2 = alloca i32, align 4
  %3 = alloca [4 x i8], align 1
  %4 = alloca i32, align 4
  store i32 %0, ptr %2, align 4
  call void @llvm.lifetime.start.p0(i64 4, ptr %3) #14
  call void @llvm.memset.p0.i64(ptr align 1 %3, i8 0, i64 4, i1 false), !annotation !4
  %5 = load i8, ptr @gdbserver_state, align 8, !range !7, !noundef !8
  %6 = trunc i8 %5 to i1
  br i1 %6, label %8, label %7

7:                                                ; preds = %1
  store i32 1, ptr %4, align 4
  br label %32

8:                                                ; preds = %1
  %9 = load ptr, ptr getelementptr inbounds nuw (%struct.GDBUserState, ptr @gdbserver_user_state, i32 0, i32 1), align 8
  %10 = icmp ne ptr %9, null
  br i1 %10, label %11, label %14

11:                                               ; preds = %8
  %12 = load ptr, ptr getelementptr inbounds nuw (%struct.GDBUserState, ptr @gdbserver_user_state, i32 0, i32 1), align 8
  %13 = call i32 @unlink(ptr noundef %12) #14
  br label %14

14:                                               ; preds = %11, %8
  %15 = load i32, ptr @gdbserver_user_state, align 8
  %16 = icmp slt i32 %15, 0
  br i1 %16, label %17, label %18

17:                                               ; preds = %14
  store i32 1, ptr %4, align 4
  br label %32

18:                                               ; preds = %14
  %19 = load i32, ptr %2, align 4
  %20 = trunc i32 %19 to i8
  call void @trace_gdbstub_op_exiting(i8 noundef zeroext %20)
  %21 = load i8, ptr getelementptr inbounds nuw (%struct.GDBState, ptr @gdbserver_state, i32 0, i32 18), align 8, !range !7, !noundef !8
  %22 = trunc i8 %21 to i1
  br i1 %22, label %23, label %31

23:                                               ; preds = %18
  %24 = getelementptr inbounds [4 x i8], ptr %3, i64 0, i64 0
  %25 = load i32, ptr %2, align 4
  %26 = trunc i32 %25 to i8
  %27 = zext i8 %26 to i32
  %28 = call i32 (ptr, i64, i32, i64, ptr, ...) @__snprintf_chk(ptr noundef %24, i64 noundef 4, i32 noundef 1, i64 noundef 4, ptr noundef @.str, i32 noundef %27)
  %29 = getelementptr inbounds [4 x i8], ptr %3, i64 0, i64 0
  %30 = call i32 @gdb_put_packet(ptr noundef %29)
  store i8 0, ptr getelementptr inbounds nuw (%struct.GDBState, ptr @gdbserver_state, i32 0, i32 18), align 8
  br label %31

31:                                               ; preds = %23, %18
  store i32 0, ptr %4, align 4
  br label %32

32:                                               ; preds = %31, %17, %7
  call void @llvm.lifetime.end.p0(i64 4, ptr %3) #14
  %33 = load i32, ptr %4, align 4
  switch i32 %33, label %35 [
    i32 0, label %34
    i32 1, label %34
  ]

34:                                               ; preds = %32, %32
  ret void

35:                                               ; preds = %32
  unreachable
}