; Function Attrs: nounwind sspstrong uwtable
define dso_local void @gdb_exit(i32 noundef %0) local_unnamed_addr #0 {
  %2 = alloca %struct.timeval, align 8
  %3 = alloca [4 x i8], align 4
  call void @llvm.lifetime.start.p0(i64 4, ptr nonnull %3) #16
  %4 = load i8, ptr @gdbserver_state, align 8, !range !7, !noundef !8
  %5 = trunc nuw i8 %4 to i1
  br i1 %5, label %6, label %38

6:                                                ; preds = %1
  %7 = load ptr, ptr getelementptr inbounds nuw (i8, ptr @gdbserver_user_state, i64 8), align 8
  %.not = icmp eq ptr %7, null
  br i1 %.not, label %10, label %8

8:                                                ; preds = %6
  %9 = tail call i32 @unlink(ptr noundef nonnull %7) #16
  br label %10

10:                                               ; preds = %8, %6
  %11 = load i32, ptr @gdbserver_user_state, align 8
  %12 = icmp slt i32 %11, 0
  br i1 %12, label %38, label %13

13:                                               ; preds = %10
  store i32 0, ptr %3, align 4, !annotation !4
  %14 = load i32, ptr @trace_events_enabled_count, align 4
  %.not.i.i = icmp eq i32 %14, 0
  br i1 %.not.i.i, label %trace_gdbstub_op_exiting.exit, label %15, !prof !9

15:                                               ; preds = %13
  %16 = load i16, ptr @_TRACE_GDBSTUB_OP_EXITING_DSTATE, align 2
  %.not2.i.i = icmp eq i16 %16, 0
  br i1 %.not2.i.i, label %trace_gdbstub_op_exiting.exit, label %17

17:                                               ; preds = %15
  %18 = load i32, ptr @qemu_loglevel, align 4
  %19 = and i32 %18, 32768
  %.not3.i.i = icmp eq i32 %19, 0
  br i1 %.not3.i.i, label %trace_gdbstub_op_exiting.exit, label %20

20:                                               ; preds = %17
  %21 = load i8, ptr @message_with_timestamp, align 1, !range !7, !noundef !8
  %22 = trunc nuw i8 %21 to i1
  br i1 %22, label %23, label %30

23:                                               ; preds = %20
  call void @llvm.lifetime.start.p0(i64 16, ptr nonnull %2) #16
  call void @llvm.memset.p0.i64(ptr noundef nonnull align 8 dereferenceable(16) %2, i8 0, i64 16, i1 false), !annotation !4
  %24 = call i32 @gettimeofday(ptr noundef nonnull %2, ptr noundef null) #16
  %25 = tail call i32 @qemu_get_thread_id() #16
  %26 = load i64, ptr %2, align 8
  %27 = getelementptr inbounds nuw i8, ptr %2, i64 8
  %28 = load i64, ptr %27, align 8
  %29 = and i32 %0, 255
  tail call void (ptr, ...) @qemu_log(ptr noundef nonnull @.str.27, i32 noundef %25, i64 noundef %26, i64 noundef %28, i32 noundef %29) #16
  call void @llvm.lifetime.end.p0(i64 16, ptr nonnull %2) #16
  br label %trace_gdbstub_op_exiting.exit

30:                                               ; preds = %20
  %31 = and i32 %0, 255
  tail call void (ptr, ...) @qemu_log(ptr noundef nonnull @.str.28, i32 noundef %31) #16
  br label %trace_gdbstub_op_exiting.exit

trace_gdbstub_op_exiting.exit:                    ; preds = %13, %15, %17, %23, %30
  %32 = load i8, ptr getelementptr inbounds nuw (i8, ptr @gdbserver_state, i64 4200), align 8, !range !7, !noundef !8
  %33 = trunc nuw i8 %32 to i1
  br i1 %33, label %34, label %38

34:                                               ; preds = %trace_gdbstub_op_exiting.exit
  %35 = and i32 %0, 255
  %36 = call i32 (ptr, i64, i32, i64, ptr, ...) @__snprintf_chk(ptr noundef nonnull %3, i64 noundef 4, i32 noundef 1, i64 noundef 4, ptr noundef nonnull @.str, i32 noundef %35) #16
  %37 = call i32 @gdb_put_packet(ptr noundef nonnull %3) #16
  store i8 0, ptr getelementptr inbounds nuw (i8, ptr @gdbserver_state, i64 4200), align 8
  br label %38

38:                                               ; preds = %trace_gdbstub_op_exiting.exit, %34, %10, %1
  call void @llvm.lifetime.end.p0(i64 4, ptr nonnull %3) #16
  ret void
}